target datalayout = "e-m:e-p270:32:32-p271:32:32-p272:64:64-i64:64-i128:128-f80:128-n8:16:32:64-S128"
target triple = "x86_64-unknown-linux-gnu"

%"class.OpenColorIO_v2_4dev::ArrayT" = type { %"class.OpenColorIO_v2_4dev::ArrayBase", i64, i64, %"class.std::vector" }
%"class.OpenColorIO_v2_4dev::ArrayBase" = type { ptr }
%"class.std::vector" = type { %"struct.std::_Vector_base" }
%"struct.std::_Vector_base" = type { %"struct.std::_Vector_base<float, std::allocator<float>>::_Vector_impl" }
%"struct.std::_Vector_base<float, std::allocator<float>>::_Vector_impl" = type { %"struct.std::_Vector_base<float, std::allocator<float>>::_Vector_impl_data" }
%"struct.std::_Vector_base<float, std::allocator<float>>::_Vector_impl_data" = type { ptr, ptr, ptr }
%"class.Imath_3_1::half" = type { i16 }
%union.imath_half_uif = type { i32 }

; Function Attrs: mustprogress nounwind uwtable
define linkonce_odr noundef zeroext i1 @_ZSt5isnanf(float noundef %__x) #5 comdat {
entry:
  %__x.addr = alloca float, align 4
  store float %__x, ptr %__x.addr, align 4
  %0 = load float, ptr %__x.addr, align 4
  %1 = call i1 @llvm.is.fpclass.f32(float %0, i32 3)
  ret i1 %1
}

; Function Attrs: noreturn nounwind uwtable
define linkonce_odr hidden void @__clang_call_terminate(ptr noundef %0) #9 comdat {
  %2 = call ptr @__cxa_begin_catch(ptr %0) #3
  call void @_ZSt9terminatev() #16
  unreachable
}

; Function Attrs: mustprogress nounwind uwtable
define internal noundef float @_ZL19imath_half_to_floatt(i16 noundef zeroext %h) #5 {
entry:
  %h.addr = alloca i16, align 2
  %v = alloca %union.imath_half_uif, align 4
  %hexpmant = alloca i32, align 4
  %lc = alloca i32, align 4
  store i16 %h, ptr %h.addr, align 2
  %0 = load i16, ptr %h.addr, align 2
  %conv = zext i16 %0 to i32
  %shl = shl i32 %conv, 17
  %shr = lshr i32 %shl, 4
  store i32 %shr, ptr %hexpmant, align 4
  %1 = load i16, ptr %h.addr, align 2
  %conv1 = zext i16 %1 to i32
  %shr2 = ashr i32 %conv1, 15
  %shl3 = shl i32 %shr2, 31
  store i32 %shl3, ptr %v, align 4
  %2 = load i32, ptr %hexpmant, align 4
  %cmp = icmp uge i32 %2, 8388608
  br i1 %cmp, label %if.then, label %if.else9

if.then:                                          ; preds = %entry
  %3 = load i32, ptr %hexpmant, align 4
  %4 = load i32, ptr %v, align 4
  %or = or i32 %4, %3
  store i32 %or, ptr %v, align 4
  %5 = load i32, ptr %hexpmant, align 4
  %cmp5 = icmp ult i32 %5, 260046848
  br i1 %cmp5, label %if.then7, label %if.else

if.then7:                                         ; preds = %if.then
  %6 = load i32, ptr %v, align 4
  %add = add i32 %6, 939524096
  store i32 %add, ptr %v, align 4
  br label %if.end

if.else:                                          ; preds = %if.then
  %7 = load i32, ptr %v, align 4
  %or8 = or i32 %7, 2139095040
  store i32 %or8, ptr %v, align 4
  br label %if.end

if.end:                                           ; preds = %if.else, %if.then7
  br label %if.end18

if.else9:                                         ; preds = %entry
  %8 = load i32, ptr %hexpmant, align 4
  %cmp10 = icmp ne i32 %8, 0
  br i1 %cmp10, label %if.then11, label %if.end17

if.then11:                                        ; preds = %if.else9
  %9 = load i32, ptr %hexpmant, align 4
  %10 = call i32 @llvm.ctlz.i32(i32 %9, i1 true)
  store i32 %10, ptr %lc, align 4
  %11 = load i32, ptr %lc, align 4
  %sub = sub i32 %11, 8
  store i32 %sub, ptr %lc, align 4
  %12 = load i32, ptr %v, align 4
  %or12 = or i32 %12, 947912704
  store i32 %or12, ptr %v, align 4
  %13 = load i32, ptr %hexpmant, align 4
  %14 = load i32, ptr %lc, align 4
  %shl13 = shl i32 %13, %14
  %15 = load i32, ptr %v, align 4
  %or14 = or i32 %15, %shl13
  store i32 %or14, ptr %v, align 4
  %16 = load i32, ptr %lc, align 4
  %shl15 = shl i32 %16, 23
  %17 = load i32, ptr %v, align 4
  %sub16 = sub i32 %17, %shl15
  store i32 %sub16, ptr %v, align 4
  br label %if.end17

if.end17:                                         ; preds = %if.then11, %if.else9
  br label %if.end18

if.end18:                                         ; preds = %if.end17, %if.end
  %18 = load float, ptr %v, align 4
  ret float %18
}

; Function Attrs: mustprogress nounwind uwtable
define linkonce_odr hidden noundef nonnull align 4 dereferenceable(4) ptr @_ZNSt6vectorIfSaIfEEixEm(ptr noundef nonnull align 8 dereferenceable(24) %this, i64 noundef %__n) #5 comdat align 2 {
entry:
  %this.addr = alloca ptr, align 8
  %__n.addr = alloca i64, align 8
  store ptr %this, ptr %this.addr, align 8
  store i64 %__n, ptr %__n.addr, align 8
  %this1 = load ptr, ptr %this.addr, align 8
  %_M_impl = getelementptr inbounds %"struct.std::_Vector_base", ptr %this1, i32 0, i32 0
  %_M_start = getelementptr inbounds %"struct.std::_Vector_base<float, std::allocator<float>>::_Vector_impl_data", ptr %_M_impl, i32 0, i32 0
  %0 = load ptr, ptr %_M_start, align 8
  %1 = load i64, ptr %__n.addr, align 8
  %add.ptr = getelementptr inbounds float, ptr %0, i64 %1
  ret ptr %add.ptr
}

; Function Attrs: mustprogress uwtable
define linkonce_odr hidden noundef zeroext i1 @_ZN19OpenColorIO_v2_4dev5IsNanIfEEbT_(float noundef %val) #4 comdat {
entry:
  %val.addr = alloca float, align 4
  store float %val, ptr %val.addr, align 4
  %0 = load float, ptr %val.addr, align 4
  %call = call noundef zeroext i1 @_ZSt5isnanf(float noundef %0)
  ret i1 %call
}

; Function Attrs: mustprogress nounwind uwtable
define linkonce_odr hidden noundef float @_ZNK9Imath_3_14halfcvfEv(ptr noundef nonnull align 2 dereferenceable(2) %this) #5 comdat align 2 personality ptr @__gxx_personality_v0 {
entry:
  %this.addr = alloca ptr, align 8
  store ptr %this, ptr %this.addr, align 8
  %this1 = load ptr, ptr %this.addr, align 8
  %_h = getelementptr inbounds %"class.Imath_3_1::half", ptr %this1, i32 0, i32 0
  %0 = load i16, ptr %_h, align 2
  %call = invoke noundef float @_ZL19imath_half_to_floatt(i16 noundef zeroext %0)
          to label %invoke.cont unwind label %terminate.lpad

invoke.cont:                                      ; preds = %entry
  ret float %call

terminate.lpad:                                   ; preds = %entry
  %1 = landingpad { ptr, i32 }
          catch ptr null
  %2 = extractvalue { ptr, i32 } %1, 0
  call void @__clang_call_terminate(ptr %2) #16
  unreachable
}

; Function Attrs: mustprogress nounwind uwtable
define linkonce_odr void @_ZN9Imath_3_14half7setBitsEt(ptr noundef nonnull align 2 dereferenceable(2) %this, i16 noundef zeroext %bits) #5 comdat align 2 {
entry:
  %this.addr = alloca ptr, align 8
  %bits.addr = alloca i16, align 2
  store ptr %this, ptr %this.addr, align 8
  store i16 %bits, ptr %bits.addr, align 2
  %this1 = load ptr, ptr %this.addr, align 8
  %0 = load i16, ptr %bits.addr, align 2
  %_h = getelementptr inbounds %"class.Imath_3_1::half", ptr %this1, i32 0, i32 0
  store i16 %0, ptr %_h, align 2
  ret void
}

; Function Attrs: mustprogress nounwind uwtable
define linkonce_odr hidden noundef zeroext i1 @_ZN19OpenColorIO_v2_4dev11Lut1DOpData17IsInputHalfDomainENS0_9HalfFlagsE(i32 noundef %halfFlags) #5 comdat align 2 {
entry:
  %halfFlags.addr = alloca i32, align 4
  store i32 %halfFlags, ptr %halfFlags.addr, align 4
  %0 = load i32, ptr %halfFlags.addr, align 4
  %and = and i32 %0, 1
  %cmp = icmp eq i32 %and, 1
  ret i1 %cmp
}

; Function Attrs: mustprogress nounwind uwtable
define linkonce_odr hidden noundef nonnull align 8 dereferenceable(24) ptr @_ZN19OpenColorIO_v2_4dev6ArrayTIfE9getValuesEv(ptr noundef nonnull align 8 dereferenceable(48) %this) #5 comdat align 2 {
entry:
  %this.addr = alloca ptr, align 8
  store ptr %this, ptr %this.addr, align 8
  %this1 = load ptr, ptr %this.addr, align 8
  %m_data = getelementptr inbounds %"class.OpenColorIO_v2_4dev::ArrayT", ptr %this1, i32 0, i32 3
  ret ptr %m_data
}

; Function Attrs: mustprogress uwtable
define hidden void @_ZN19OpenColorIO_v2_4dev11Lut1DOpData13Lut3by1DArray4fillENS0_9HalfFlagsEb(ptr noundef nonnull align 8 dereferenceable(48) %this, i32 noundef %halfFlags, i1 noundef zeroext %filterNANs) #4 align 2 {
entry:
  %this.addr = alloca ptr, align 8
  %halfFlags.addr = alloca i32, align 4
  %filterNANs.addr = alloca i8, align 1
  %dim = alloca i64, align 8
  %maxChannels = alloca i64, align 8
  %values = alloca ptr, align 8
  %idx = alloca i64, align 8
  %htemp = alloca %"class.Imath_3_1::half", align 2
  %ftemp = alloca float, align 4
  %row = alloca i64, align 8
  %channel = alloca i64, align 8
  %stepValue = alloca float, align 4
  %idx18 = alloca i64, align 8
  %ftemp22 = alloca float, align 4
  %row25 = alloca i64, align 8
  %channel27 = alloca i64, align 8
  store ptr %this, ptr %this.addr, align 8
  store i32 %halfFlags, ptr %halfFlags.addr, align 4
  %frombool = zext i1 %filterNANs to i8
  store i8 %frombool, ptr %filterNANs.addr, align 1
  %this1 = load ptr, ptr %this.addr, align 8
  %vtable = load ptr, ptr %this1, align 8
  %vfn = getelementptr inbounds ptr, ptr %vtable, i64 4
  %0 = load ptr, ptr %vfn, align 8
  %call = call noundef i64 %0(ptr noundef nonnull align 8 dereferenceable(48) %this1)
  store i64 %call, ptr %dim, align 8
  %vtable2 = load ptr, ptr %this1, align 8
  %vfn3 = getelementptr inbounds ptr, ptr %vtable2, i64 5
  %1 = load ptr, ptr %vfn3, align 8
  %call4 = call noundef i64 %1(ptr noundef nonnull align 8 dereferenceable(48) %this1)
  store i64 %call4, ptr %maxChannels, align 8
  %call5 = call noundef nonnull align 8 dereferenceable(24) ptr @_ZN19OpenColorIO_v2_4dev6ArrayTIfE9getValuesEv(ptr noundef nonnull align 8 dereferenceable(48) %this1)
  store ptr %call5, ptr %values, align 8
  %2 = load i32, ptr %halfFlags.addr, align 4
  %call6 = call noundef zeroext i1 @_ZN19OpenColorIO_v2_4dev11Lut1DOpData17IsInputHalfDomainENS0_9HalfFlagsE(i32 noundef %2) #3
  br i1 %call6, label %if.then, label %if.else

if.then:                                          ; preds = %entry
  store i64 0, ptr %idx, align 8
  br label %for.cond

for.cond:                                         ; preds = %for.inc14, %if.then
  %3 = load i64, ptr %idx, align 8
  %4 = load i64, ptr %dim, align 8
  %cmp = icmp ult i64 %3, %4
  br i1 %cmp, label %for.body, label %for.end16

for.body:                                         ; preds = %for.cond
  %5 = load i64, ptr %idx, align 8
  %conv = trunc i64 %5 to i16
  call void @_ZN9Imath_3_14half7setBitsEt(ptr noundef nonnull align 2 dereferenceable(2) %htemp, i16 noundef zeroext %conv) #3
  %call7 = call noundef float @_ZNK9Imath_3_14halfcvfEv(ptr noundef nonnull align 2 dereferenceable(2) %htemp) #3
  store float %call7, ptr %ftemp, align 4
  %6 = load float, ptr %ftemp, align 4
  %call8 = call noundef zeroext i1 @_ZN19OpenColorIO_v2_4dev5IsNanIfEEbT_(float noundef %6)
  br i1 %call8, label %land.lhs.true, label %if.end

land.lhs.true:                                    ; preds = %for.body
  %7 = load i8, ptr %filterNANs.addr, align 1
  %tobool = trunc i8 %7 to i1
  br i1 %tobool, label %if.then9, label %if.end

if.then9:                                         ; preds = %land.lhs.true
  store float 0.000000e+00, ptr %ftemp, align 4
  br label %if.end

if.end:                                           ; preds = %if.then9, %land.lhs.true, %for.body
  %8 = load i64, ptr %maxChannels, align 8
  %9 = load i64, ptr %idx, align 8
  %mul = mul i64 %8, %9
  store i64 %mul, ptr %row, align 8
  store i64 0, ptr %channel, align 8
  br label %for.cond10

for.cond10:                                       ; preds = %for.inc, %if.end
  %10 = load i64, ptr %channel, align 8
  %11 = load i64, ptr %maxChannels, align 8
  %cmp11 = icmp ult i64 %10, %11
  br i1 %cmp11, label %for.body12, label %for.end

for.body12:                                       ; preds = %for.cond10
  %12 = load float, ptr %ftemp, align 4
  %13 = load ptr, ptr %values, align 8
  %14 = load i64, ptr %channel, align 8
  %15 = load i64, ptr %row, align 8
  %add = add i64 %14, %15
  %call13 = call noundef nonnull align 4 dereferenceable(4) ptr @_ZNSt6vectorIfSaIfEEixEm(ptr noundef nonnull align 8 dereferenceable(24) %13, i64 noundef %add) #3
  store float %12, ptr %call13, align 4
  br label %for.inc

for.inc:                                          ; preds = %for.body12
  %16 = load i64, ptr %channel, align 8
  %inc = add i64 %16, 1
  store i64 %inc, ptr %channel, align 8
  br label %for.cond10, !llvm.loop !4

for.end:                                          ; preds = %for.cond10
  br label %for.inc14

for.inc14:                                        ; preds = %for.end
  %17 = load i64, ptr %idx, align 8
  %inc15 = add i64 %17, 1
  store i64 %inc15, ptr %idx, align 8
  br label %for.cond, !llvm.loop !6

for.end16:                                        ; preds = %for.cond
  br label %if.end39

if.else:                                          ; preds = %entry
  %18 = load i64, ptr %dim, align 8
  %conv17 = uitofp i64 %18 to float
  %sub = fsub float %conv17, 1.000000e+00
  %div = fdiv float 1.000000e+00, %sub
  store float %div, ptr %stepValue, align 4
  store i64 0, ptr %idx18, align 8
  br label %for.cond19

for.cond19:                                       ; preds = %for.inc36, %if.else
  %19 = load i64, ptr %idx18, align 8
  %20 = load i64, ptr %dim, align 8
  %cmp20 = icmp ult i64 %19, %20
  br i1 %cmp20, label %for.body21, label %for.end38

for.body21:                                       ; preds = %for.cond19
  %21 = load i64, ptr %idx18, align 8
  %conv23 = uitofp i64 %21 to float
  %22 = load float, ptr %stepValue, align 4
  %mul24 = fmul float %conv23, %22
  store float %mul24, ptr %ftemp22, align 4
  %23 = load i64, ptr %maxChannels, align 8
  %24 = load i64, ptr %idx18, align 8
  %mul26 = mul i64 %23, %24
  store i64 %mul26, ptr %row25, align 8
  store i64 0, ptr %channel27, align 8
  br label %for.cond28

for.cond28:                                       ; preds = %for.inc33, %for.body21
  %25 = load i64, ptr %channel27, align 8
  %26 = load i64, ptr %maxChannels, align 8
  %cmp29 = icmp ult i64 %25, %26
  br i1 %cmp29, label %for.body30, label %for.end35

for.body30:                                       ; preds = %for.cond28
  %27 = load float, ptr %ftemp22, align 4
  %28 = load ptr, ptr %values, align 8
  %29 = load i64, ptr %channel27, align 8
  %30 = load i64, ptr %row25, align 8
  %add31 = add i64 %29, %30
  %call32 = call noundef nonnull align 4 dereferenceable(4) ptr @_ZNSt6vectorIfSaIfEEixEm(ptr noundef nonnull align 8 dereferenceable(24) %28, i64 noundef %add31) #3
  store float %27, ptr %call32, align 4
  br label %for.inc33

for.inc33:                                        ; preds = %for.body30
  %31 = load i64, ptr %channel27, align 8
  %inc34 = add i64 %31, 1
  store i64 %inc34, ptr %channel27, align 8
  br label %for.cond28, !llvm.loop !7

for.end35:                                        ; preds = %for.cond28
  br label %for.inc36

for.inc36:                                        ; preds = %for.end35
  %32 = load i64, ptr %idx18, align 8
  %inc37 = add i64 %32, 1
  store i64 %inc37, ptr %idx18, align 8
  br label %for.cond19, !llvm.loop !8

for.end38:                                        ; preds = %for.cond19
  br label %if.end39

if.end39:                                         ; preds = %for.end38, %for.end16
  ret void
}