; Function Attrs: mustprogress uwtable
define hidden void @_ZN19OpenColorIO_v2_4dev11Lut1DOpData13Lut3by1DArray4fillENS0_9HalfFlagsEb(ptr noundef nonnull align 8 dereferenceable(48) %this, i32 noundef %halfFlags, i1 noundef zeroext %filterNANs) local_unnamed_addr #3 align 2 personality ptr @__gxx_personality_v0 {
entry:
  %vtable = load ptr, ptr %this, align 8
  %vfn = getelementptr inbounds i8, ptr %vtable, i64 32
  %0 = load ptr, ptr %vfn, align 8
  %call = tail call noundef i64 %0(ptr noundef nonnull align 8 dereferenceable(48) %this)
  %vtable2 = load ptr, ptr %this, align 8
  %vfn3 = getelementptr inbounds i8, ptr %vtable2, i64 40
  %1 = load ptr, ptr %vfn3, align 8
  %call4 = tail call noundef i64 %1(ptr noundef nonnull align 8 dereferenceable(48) %this)
  %m_data.i = getelementptr inbounds i8, ptr %this, i64 24
  %and.i = and i32 %halfFlags, 1
  %cmp.i.not = icmp eq i32 %and.i, 0
  br i1 %cmp.i.not, label %if.else, label %for.cond.preheader

for.cond.preheader:                               ; preds = %entry
  %cmp22.not = icmp eq i64 %call, 0
  %cmp1120.not = icmp eq i64 %call4, 0
  %or.cond = or i1 %cmp22.not, %cmp1120.not
  br i1 %or.cond, label %if.end39, label %for.body.lr.ph.split.us

for.body.lr.ph.split.us:                          ; preds = %for.cond.preheader
  br i1 %filterNANs, label %for.body.us, label %for.body.us.us

for.body.us.us:                                   ; preds = %for.body.lr.ph.split.us, %for.cond10.for.inc14_crit_edge.us.us
  %idx.023.us.us = phi i64 [ %inc15.us.us, %for.cond10.for.inc14_crit_edge.us.us ], [ 0, %for.body.lr.ph.split.us ]
  %conv.us.us = trunc i64 %idx.023.us.us to i32
  %conv.i.i.us.us = shl i32 %conv.us.us, 13
  %shr.i.i.us.us = and i32 %conv.i.i.us.us, 268427264
  %sext.us.us = shl i32 %conv.us.us, 16
  %shl3.i.i.us.us = and i32 %sext.us.us, -2147483648
  %cmp.i.i.us.us = icmp ugt i32 %shr.i.i.us.us, 8388607
  br i1 %cmp.i.i.us.us, label %if.then.i.i.us.us, label %if.else9.i.i.us.us

if.else9.i.i.us.us:                               ; preds = %for.body.us.us
  %cmp10.not.i.i.us.us = icmp eq i32 %shr.i.i.us.us, 0
  br i1 %cmp10.not.i.i.us.us, label %_ZNK9Imath_3_14halfcvfEv.exit.us.us, label %if.then11.i.i.us.us

if.then11.i.i.us.us:                              ; preds = %if.else9.i.i.us.us
  %2 = tail call i32 @llvm.ctlz.i32(i32 %shr.i.i.us.us, i1 true), !range !4
  %sub.i.i.us.us = add nsw i32 %2, -8
  %shl13.i.i.us.us = shl i32 %shr.i.i.us.us, %sub.i.i.us.us
  %or12.i.i.us.us = or i32 %shl3.i.i.us.us, %shl13.i.i.us.us
  %or14.i.i.us.us = or i32 %or12.i.i.us.us, 947912704
  %shl15.i.i.us.us = shl nuw nsw i32 %sub.i.i.us.us, 23
  %sub16.i.i.us.us = sub nuw i32 %or14.i.i.us.us, %shl15.i.i.us.us
  br label %_ZNK9Imath_3_14halfcvfEv.exit.us.us

if.then.i.i.us.us:                                ; preds = %for.body.us.us
  %or.i.i.us.us = or disjoint i32 %shr.i.i.us.us, %shl3.i.i.us.us
  %cmp5.i.i.us.us = icmp ult i32 %shr.i.i.us.us, 260046848
  br i1 %cmp5.i.i.us.us, label %if.then7.i.i.us.us, label %if.else.i.i.us.us

if.else.i.i.us.us:                                ; preds = %if.then.i.i.us.us
  %or8.i.i.us.us = or i32 %or.i.i.us.us, 2139095040
  br label %_ZNK9Imath_3_14halfcvfEv.exit.us.us

if.then7.i.i.us.us:                               ; preds = %if.then.i.i.us.us
  %add.i.i.us.us = add nuw nsw i32 %or.i.i.us.us, 939524096
  br label %_ZNK9Imath_3_14halfcvfEv.exit.us.us

_ZNK9Imath_3_14halfcvfEv.exit.us.us:              ; preds = %if.then7.i.i.us.us, %if.else.i.i.us.us, %if.then11.i.i.us.us, %if.else9.i.i.us.us
  %v.sroa.0.0.i.i.us.us = phi i32 [ %add.i.i.us.us, %if.then7.i.i.us.us ], [ %or8.i.i.us.us, %if.else.i.i.us.us ], [ %sub16.i.i.us.us, %if.then11.i.i.us.us ], [ %shl3.i.i.us.us, %if.else9.i.i.us.us ]
  %mul.us.us = mul i64 %idx.023.us.us, %call4
  br label %for.body12.us.us

for.body12.us.us:                                 ; preds = %_ZNK9Imath_3_14halfcvfEv.exit.us.us, %for.body12.us.us
  %channel.021.us.us = phi i64 [ 0, %_ZNK9Imath_3_14halfcvfEv.exit.us.us ], [ %inc.us.us, %for.body12.us.us ]
  %3 = load ptr, ptr %m_data.i, align 8
  %4 = getelementptr float, ptr %3, i64 %channel.021.us.us
  %add.ptr.i.us.us = getelementptr float, ptr %4, i64 %mul.us.us
  store i32 %v.sroa.0.0.i.i.us.us, ptr %add.ptr.i.us.us, align 4
  %inc.us.us = add nuw i64 %channel.021.us.us, 1
  %exitcond.not = icmp eq i64 %inc.us.us, %call4
  br i1 %exitcond.not, label %for.cond10.for.inc14_crit_edge.us.us, label %for.body12.us.us, !llvm.loop !5

for.cond10.for.inc14_crit_edge.us.us:             ; preds = %for.body12.us.us
  %inc15.us.us = add nuw i64 %idx.023.us.us, 1
  %exitcond32.not = icmp eq i64 %inc15.us.us, %call
  br i1 %exitcond32.not, label %if.end39, label %for.body.us.us, !llvm.loop !7

for.body.us:                                      ; preds = %for.body.lr.ph.split.us, %for.cond10.for.inc14_crit_edge.us
  %idx.023.us = phi i64 [ %inc15.us, %for.cond10.for.inc14_crit_edge.us ], [ 0, %for.body.lr.ph.split.us ]
  %conv.us = trunc i64 %idx.023.us to i32
  %conv.i.i.us = shl i32 %conv.us, 13
  %shr.i.i.us = and i32 %conv.i.i.us, 268427264
  %sext.us = shl i32 %conv.us, 16
  %shl3.i.i.us = and i32 %sext.us, -2147483648
  %cmp.i.i.us = icmp ugt i32 %shr.i.i.us, 8388607
  br i1 %cmp.i.i.us, label %if.then.i.i.us, label %if.else9.i.i.us

if.else9.i.i.us:                                  ; preds = %for.body.us
  %cmp10.not.i.i.us = icmp eq i32 %shr.i.i.us, 0
  br i1 %cmp10.not.i.i.us, label %_ZNK9Imath_3_14halfcvfEv.exit.us, label %if.then11.i.i.us

if.then11.i.i.us:                                 ; preds = %if.else9.i.i.us
  %5 = tail call i32 @llvm.ctlz.i32(i32 %shr.i.i.us, i1 true), !range !4
  %sub.i.i.us = add nsw i32 %5, -8
  %shl13.i.i.us = shl i32 %shr.i.i.us, %sub.i.i.us
  %or12.i.i.us = or i32 %shl3.i.i.us, %shl13.i.i.us
  %or14.i.i.us = or i32 %or12.i.i.us, 947912704
  %shl15.i.i.us = shl nuw nsw i32 %sub.i.i.us, 23
  %sub16.i.i.us = sub nuw i32 %or14.i.i.us, %shl15.i.i.us
  br label %_ZNK9Imath_3_14halfcvfEv.exit.us

if.then.i.i.us:                                   ; preds = %for.body.us
  %or.i.i.us = or disjoint i32 %shr.i.i.us, %shl3.i.i.us
  %cmp5.i.i.us = icmp ult i32 %shr.i.i.us, 260046848
  br i1 %cmp5.i.i.us, label %if.then7.i.i.us, label %if.else.i.i.us

if.else.i.i.us:                                   ; preds = %if.then.i.i.us
  %or8.i.i.us = or i32 %or.i.i.us, 2139095040
  br label %_ZNK9Imath_3_14halfcvfEv.exit.us

if.then7.i.i.us:                                  ; preds = %if.then.i.i.us
  %add.i.i.us = add nuw nsw i32 %or.i.i.us, 939524096
  br label %_ZNK9Imath_3_14halfcvfEv.exit.us

_ZNK9Imath_3_14halfcvfEv.exit.us:                 ; preds = %if.then7.i.i.us, %if.else.i.i.us, %if.then11.i.i.us, %if.else9.i.i.us
  %v.sroa.0.0.i.i.us = phi i32 [ %add.i.i.us, %if.then7.i.i.us ], [ %or8.i.i.us, %if.else.i.i.us ], [ %sub16.i.i.us, %if.then11.i.i.us ], [ %shl3.i.i.us, %if.else9.i.i.us ]
  %6 = bitcast i32 %v.sroa.0.0.i.i.us to float
  %.inv = fcmp ord float %6, 0.000000e+00
  %unswitched.select = select i1 %.inv, float %6, float 0.000000e+00
  %mul.us = mul i64 %idx.023.us, %call4
  br label %for.body12.us

for.body12.us:                                    ; preds = %_ZNK9Imath_3_14halfcvfEv.exit.us, %for.body12.us
  %channel.021.us = phi i64 [ 0, %_ZNK9Imath_3_14halfcvfEv.exit.us ], [ %inc.us, %for.body12.us ]
  %7 = load ptr, ptr %m_data.i, align 8
  %8 = getelementptr float, ptr %7, i64 %channel.021.us
  %add.ptr.i.us = getelementptr float, ptr %8, i64 %mul.us
  store float %unswitched.select, ptr %add.ptr.i.us, align 4
  %inc.us = add nuw i64 %channel.021.us, 1
  %exitcond33.not = icmp eq i64 %inc.us, %call4
  br i1 %exitcond33.not, label %for.cond10.for.inc14_crit_edge.us, label %for.body12.us, !llvm.loop !5

for.cond10.for.inc14_crit_edge.us:                ; preds = %for.body12.us
  %inc15.us = add nuw i64 %idx.023.us, 1
  %exitcond34.not = icmp eq i64 %inc15.us, %call
  br i1 %exitcond34.not, label %if.end39, label %for.body.us, !llvm.loop !7

if.else:                                          ; preds = %entry
  %conv17 = uitofp i64 %call to float
  %sub = fadd float %conv17, -1.000000e+00
  %div = fdiv float 1.000000e+00, %sub
  %cmp2026.not = icmp eq i64 %call, 0
  %cmp2924.not = icmp eq i64 %call4, 0
  %or.cond39 = or i1 %cmp2026.not, %cmp2924.not
  br i1 %or.cond39, label %if.end39, label %for.body21.us

for.body21.us:                                    ; preds = %if.else, %for.cond28.for.inc36_crit_edge.us
  %idx18.027.us = phi i64 [ %inc37.us, %for.cond28.for.inc36_crit_edge.us ], [ 0, %if.else ]
  %conv23.us = uitofp i64 %idx18.027.us to float
  %mul24.us = fmul float %div, %conv23.us
  %mul26.us = mul i64 %idx18.027.us, %call4
  br label %for.body30.us

for.body30.us:                                    ; preds = %for.body21.us, %for.body30.us
  %channel27.025.us = phi i64 [ 0, %for.body21.us ], [ %inc34.us, %for.body30.us ]
  %9 = load ptr, ptr %m_data.i, align 8
  %10 = getelementptr float, ptr %9, i64 %channel27.025.us
  %add.ptr.i18.us = getelementptr float, ptr %10, i64 %mul26.us
  store float %mul24.us, ptr %add.ptr.i18.us, align 4
  %inc34.us = add nuw i64 %channel27.025.us, 1
  %exitcond35.not = icmp eq i64 %inc34.us, %call4
  br i1 %exitcond35.not, label %for.cond28.for.inc36_crit_edge.us, label %for.body30.us, !llvm.loop !8

for.cond28.for.inc36_crit_edge.us:                ; preds = %for.body30.us
  %inc37.us = add nuw i64 %idx18.027.us, 1
  %exitcond36.not = icmp eq i64 %inc37.us, %call
  br i1 %exitcond36.not, label %if.end39, label %for.body21.us, !llvm.loop !9

if.end39:                                         ; preds = %for.cond10.for.inc14_crit_edge.us.us, %for.cond10.for.inc14_crit_edge.us, %for.cond28.for.inc36_crit_edge.us, %for.cond.preheader, %if.else
  ret void
}